target datalayout = "e-m:e-p270:32:32-p271:32:32-p272:64:64-i64:64-i128:128-f80:128-n8:16:32:64-S128"
target triple = "x86_64-pc-linux-gnu"

%struct.expert_field = type { i32, i32 }
%struct.dgt_set_t = type { [16 x i8] }
%struct.ansi_a_shared_data_t = type { ptr, ptr, ptr, i8, i8, %struct._address, i32, %struct.e_in6_addr, i16, i8 }
%struct._address = type { i32, i32, ptr, ptr }
%struct.e_in6_addr = type { [16 x i8] }
%struct._packet_info = type { ptr, ptr, i32, i32, %struct.nstime_t, %struct.nstime_t, %struct.nstime_t, i8, ptr, ptr, ptr, ptr, %struct._address, %struct._address, %struct._address, %struct._address, %struct._address, %struct._address, i32, ptr, i8, [3 x i8], %struct.anon, i32, i32, i32, i32, ptr, i8, ptr, ptr, i16, i16, i32, i32, i16, i32, i32, ptr, ptr, ptr, i8, i8, i16, i16, i16, i32, i16, i16, ptr, ptr, ptr, ptr, ptr, i32, i32 }
%struct.nstime_t = type { i64, i32 }
%struct.anon = type { i8, [3 x i8] }

@ei_ansi_a_extraneous_data = internal global %struct.expert_field zeroinitializer, align 4
@hf_ansi_a_bdtmf_chars_num_chars = internal global i32 0, align 4
@hf_ansi_a_bdtmf_chars_digits = internal global i32 0, align 4
@.str.1006 = private unnamed_addr constant [8 x i8] c" - (%s)\00", align 1
@Dgt_dtmf = internal global %struct.dgt_set_t { [16 x i8] c"?1234567890*#??\00" }, align 1

; Function Attrs: null_pointer_is_valid sspstrong uwtable
define internal zeroext i8 @elem_dtmf_chars(ptr noundef %0, ptr noundef %1, ptr noundef %2, i32 noundef %3, i32 noundef %4, ptr noundef %5) #1 {
  %7 = alloca i8, align 1
  %8 = alloca ptr, align 8
  %9 = alloca ptr, align 8
  %10 = alloca ptr, align 8
  %11 = alloca i32, align 4
  %12 = alloca i32, align 4
  %13 = alloca ptr, align 8
  %14 = alloca i8, align 1
  %15 = alloca i32, align 4
  %16 = alloca i8, align 1
  %17 = alloca ptr, align 8
  %18 = alloca i32, align 4
  store ptr %0, ptr %8, align 8
  store ptr %1, ptr %9, align 8
  store ptr %2, ptr %10, align 8
  store i32 %3, ptr %11, align 4
  store i32 %4, ptr %12, align 4
  store ptr %5, ptr %13, align 8
  call void @llvm.lifetime.start.p0(i64 1, ptr %14) #8
  call void @llvm.lifetime.start.p0(i64 4, ptr %15) #8
  call void @llvm.lifetime.start.p0(i64 1, ptr %16) #8
  call void @llvm.lifetime.start.p0(i64 8, ptr %17) #8
  %19 = load i32, ptr %11, align 4
  store i32 %19, ptr %15, align 4
  %20 = load ptr, ptr %10, align 8
  %21 = load i32, ptr @hf_ansi_a_bdtmf_chars_num_chars, align 4
  %22 = load ptr, ptr %8, align 8
  %23 = load i32, ptr %15, align 4
  %24 = call ptr @proto_tree_add_item(ptr noundef %20, i32 noundef %21, ptr noundef %22, i32 noundef %23, i32 noundef 1, i32 noundef 0)
  %25 = load ptr, ptr %8, align 8
  %26 = load i32, ptr %15, align 4
  %27 = call zeroext i8 @tvb_get_uint8(ptr noundef %25, i32 noundef %26)
  store i8 %27, ptr %14, align 1
  %28 = load i32, ptr %15, align 4
  %29 = add i32 %28, 1
  store i32 %29, ptr %15, align 4
  %30 = load i32, ptr %15, align 4
  %31 = load i32, ptr %11, align 4
  %32 = sub i32 %30, %31
  %33 = load i32, ptr %12, align 4
  %34 = icmp uge i32 %32, %33
  br i1 %34, label %35, label %40

35:                                               ; preds = %6
  %36 = load i32, ptr %15, align 4
  %37 = load i32, ptr %11, align 4
  %38 = sub i32 %36, %37
  %39 = trunc i32 %38 to i8
  store i8 %39, ptr %7, align 1
  store i32 1, ptr %18, align 4
  br label %112

40:                                               ; preds = %6
  %41 = load i32, ptr %12, align 4
  %42 = load i32, ptr %15, align 4
  %43 = load i32, ptr %11, align 4
  %44 = sub i32 %42, %43
  %45 = sub i32 %41, %44
  %46 = trunc i32 %45 to i8
  store i8 %46, ptr %16, align 1
  %47 = load ptr, ptr %9, align 8
  %48 = getelementptr inbounds nuw %struct._packet_info, ptr %47, i32 0, i32 51
  %49 = load ptr, ptr %48, align 8
  %50 = load ptr, ptr %8, align 8
  %51 = load i32, ptr %15, align 4
  %52 = load i8, ptr %16, align 1
  %53 = zext i8 %52 to i32
  %54 = call ptr @tvb_bcd_dig_to_str(ptr noundef %49, ptr noundef %50, i32 noundef %51, i32 noundef %53, ptr noundef @Dgt_dtmf, i1 noundef zeroext false)
  store ptr %54, ptr %17, align 8
  %55 = load i8, ptr %14, align 1
  %56 = zext i8 %55 to i32
  %57 = and i32 %56, 1
  %58 = icmp ne i32 %57, 0
  br i1 %58, label %59, label %67

59:                                               ; preds = %40
  %60 = load ptr, ptr %17, align 8
  %61 = load i8, ptr %16, align 1
  %62 = zext i8 %61 to i32
  %63 = mul i32 2, %62
  %64 = sub i32 %63, 1
  %65 = sext i32 %64 to i64
  %66 = getelementptr i8, ptr %60, i64 %65
  store i8 0, ptr %66, align 1
  br label %67

67:                                               ; preds = %59, %40
  %68 = load ptr, ptr %10, align 8
  %69 = load i32, ptr @hf_ansi_a_bdtmf_chars_digits, align 4
  %70 = load ptr, ptr %8, align 8
  %71 = load i32, ptr %15, align 4
  %72 = load i8, ptr %16, align 1
  %73 = zext i8 %72 to i32
  %74 = load ptr, ptr %17, align 8
  %75 = call ptr @proto_tree_add_string(ptr noundef %68, i32 noundef %69, ptr noundef %70, i32 noundef %71, i32 noundef %73, ptr noundef %74)
  %76 = load ptr, ptr %13, align 8
  %77 = getelementptr inbounds nuw %struct.ansi_a_shared_data_t, ptr %76, i32 0, i32 2
  %78 = load ptr, ptr %77, align 8
  %79 = load ptr, ptr %17, align 8
  call void (ptr, ptr, ...) @proto_item_append_text(ptr noundef %78, ptr noundef @.str.1006, ptr noundef %79)
  %80 = load i8, ptr %16, align 1
  %81 = zext i8 %80 to i32
  %82 = load i32, ptr %15, align 4
  %83 = add i32 %82, %81
  store i32 %83, ptr %15, align 4
  %84 = load i32, ptr %12, align 4
  %85 = load i32, ptr %15, align 4
  %86 = load i32, ptr %11, align 4
  %87 = sub i32 %85, %86
  %88 = icmp ugt i32 %84, %87
  br i1 %88, label %89, label %107

89:                                               ; preds = %67
  %90 = load ptr, ptr %10, align 8
  %91 = load ptr, ptr %9, align 8
  %92 = load ptr, ptr %8, align 8
  %93 = load i32, ptr %15, align 4
  %94 = load i32, ptr %12, align 4
  %95 = load i32, ptr %15, align 4
  %96 = load i32, ptr %11, align 4
  %97 = sub i32 %95, %96
  %98 = sub i32 %94, %97
  %99 = call ptr @proto_tree_add_expert(ptr noundef %90, ptr noundef %91, ptr noundef @ei_ansi_a_extraneous_data, ptr noundef %92, i32 noundef %93, i32 noundef %98)
  %100 = load i32, ptr %12, align 4
  %101 = load i32, ptr %15, align 4
  %102 = load i32, ptr %11, align 4
  %103 = sub i32 %101, %102
  %104 = sub i32 %100, %103
  %105 = load i32, ptr %15, align 4
  %106 = add i32 %105, %104
  store i32 %106, ptr %15, align 4
  br label %107

107:                                              ; preds = %89, %67
  %108 = load i32, ptr %15, align 4
  %109 = load i32, ptr %11, align 4
  %110 = sub i32 %108, %109
  %111 = trunc i32 %110 to i8
  store i8 %111, ptr %7, align 1
  store i32 1, ptr %18, align 4
  br label %112

112:                                              ; preds = %107, %35
  call void @llvm.lifetime.end.p0(i64 8, ptr %17) #8
  call void @llvm.lifetime.end.p0(i64 1, ptr %16) #8
  call void @llvm.lifetime.end.p0(i64 4, ptr %15) #8
  call void @llvm.lifetime.end.p0(i64 1, ptr %14) #8
  %113 = load i8, ptr %7, align 1
  ret i8 %113
}