; Function Attrs: null_pointer_is_valid sspstrong uwtable
define internal zeroext i8 @elem_dtmf_chars(ptr noundef %0, ptr noundef %1, ptr noundef %2, i32 noundef %3, i32 noundef %4, ptr noundef readonly captures(none) %5) #1 {
  %7 = load i32, ptr @hf_ansi_a_bdtmf_chars_num_chars, align 4
  %8 = tail call ptr @proto_tree_add_item(ptr noundef %2, i32 noundef %7, ptr noundef %0, i32 noundef %3, i32 noundef 1, i32 noundef 0)
  %9 = tail call zeroext i8 @tvb_get_uint8(ptr noundef %0, i32 noundef %3)
  %10 = add i32 %3, 1
  %11 = icmp ult i32 %4, 2
  br i1 %11, label %38, label %12

12:                                               ; preds = %6
  %13 = add i32 %4, 255
  %14 = getelementptr inbounds nuw i8, ptr %1, i64 408
  %15 = load ptr, ptr %14, align 8
  %16 = and i32 %13, 255
  %17 = tail call ptr @tvb_bcd_dig_to_str(ptr noundef %15, ptr noundef %0, i32 noundef %10, i32 noundef %16, ptr noundef nonnull @Dgt_dtmf, i1 noundef zeroext false)
  %18 = and i8 %9, 1
  %.not = icmp eq i8 %18, 0
  br i1 %.not, label %24, label %19

19:                                               ; preds = %12
  %20 = shl nuw nsw i32 %16, 1
  %21 = zext nneg i32 %20 to i64
  %22 = getelementptr i8, ptr %17, i64 %21
  %23 = getelementptr i8, ptr %22, i64 -1
  store i8 0, ptr %23, align 1
  br label %24

24:                                               ; preds = %19, %12
  %25 = load i32, ptr @hf_ansi_a_bdtmf_chars_digits, align 4
  %26 = tail call ptr @proto_tree_add_string(ptr noundef %2, i32 noundef %25, ptr noundef %0, i32 noundef %10, i32 noundef %16, ptr noundef %17)
  %27 = getelementptr inbounds nuw i8, ptr %5, i64 16
  %28 = load ptr, ptr %27, align 8
  tail call void (ptr, ptr, ...) @proto_item_append_text(ptr noundef %28, ptr noundef nonnull @.str.1006, ptr noundef %17)
  %29 = add i32 %16, %10
  %30 = sub i32 %29, %3
  %31 = icmp ugt i32 %4, %30
  br i1 %31, label %32, label %36

32:                                               ; preds = %24
  %33 = sub nuw i32 %4, %30
  %34 = tail call ptr @proto_tree_add_expert(ptr noundef %2, ptr noundef %1, ptr noundef nonnull @ei_ansi_a_extraneous_data, ptr noundef %0, i32 noundef %29, i32 noundef %33)
  %35 = add i32 %33, %29
  %.pre = sub i32 %35, %3
  br label %36

36:                                               ; preds = %32, %24
  %.pre-phi = phi i32 [ %.pre, %32 ], [ %30, %24 ]
  %37 = trunc i32 %.pre-phi to i8
  br label %38

38:                                               ; preds = %6, %36
  %.0 = phi i8 [ %37, %36 ], [ 1, %6 ]
  ret i8 %.0
}